target datalayout = "e-m:e-p270:32:32-p271:32:32-p272:64:64-i64:64-i128:128-f80:128-n8:16:32:64-S128"
target triple = "x86_64-pc-linux-gnu"

%"class.llvm::InstructionCost" = type <{ i64, i32, [4 x i8] }>

; Function Attrs: mustprogress nounwind uwtable
define linkonce_odr hidden void @_ZN4llvm15InstructionCost10setInvalidEv(ptr noundef nonnull align 8 dereferenceable(12) %0) #0 comdat align 2 {
  %2 = alloca ptr, align 8
  store ptr %0, ptr %2, align 8
  %3 = load ptr, ptr %2, align 8
  %4 = getelementptr inbounds nuw %"class.llvm::InstructionCost", ptr %3, i32 0, i32 1
  store i32 1, ptr %4, align 8
  ret void
}

; Function Attrs: mustprogress nounwind uwtable
define linkonce_odr hidden { i64, i32 } @_ZN4llvm15InstructionCost10getInvalidEl(i64 noundef %0) #0 comdat align 2 {
  %2 = alloca %"class.llvm::InstructionCost", align 8
  %3 = alloca i64, align 8
  store i64 %0, ptr %3, align 8
  %4 = load i64, ptr %3, align 8
  call void @_ZN4llvm15InstructionCostC2El(ptr noundef nonnull align 8 dereferenceable(12) %2, i64 noundef %4)
  call void @_ZN4llvm15InstructionCost10setInvalidEv(ptr noundef nonnull align 8 dereferenceable(12) %2)
  %5 = load { i64, i32 }, ptr %2, align 8
  ret { i64, i32 } %5
}

; Function Attrs: mustprogress nounwind uwtable
define linkonce_odr hidden void @_ZN4llvm15InstructionCostC2El(ptr noundef nonnull align 8 dereferenceable(12) %0, i64 noundef %1) unnamed_addr #0 comdat align 2 {
  %3 = alloca ptr, align 8
  %4 = alloca i64, align 8
  store ptr %0, ptr %3, align 8
  store i64 %1, ptr %4, align 8
  %5 = load ptr, ptr %3, align 8
  %6 = getelementptr inbounds nuw %"class.llvm::InstructionCost", ptr %5, i32 0, i32 0
  %7 = load i64, ptr %4, align 8
  store i64 %7, ptr %6, align 8
  %8 = getelementptr inbounds nuw %"class.llvm::InstructionCost", ptr %5, i32 0, i32 1
  store i32 0, ptr %8, align 8
  ret void
}

; Function Attrs: mustprogress nounwind uwtable
define dso_local { i64, i32 } @_ZNK4llvm10X86TTIImpl15getAltInstrCostEPNS_10VectorTypeEjjRKNS_14SmallBitVectorENS_19TargetTransformInfo14TargetCostKindE(ptr noundef nonnull align 8 dereferenceable(72) %0, ptr noundef %1, i32 noundef %2, i32 noundef %3, ptr noundef nonnull align 8 dereferenceable(8) %4, i32 noundef %5) #0 align 2 {
  %7 = alloca %"class.llvm::InstructionCost", align 8
  %8 = alloca ptr, align 8
  %9 = alloca ptr, align 8
  %10 = alloca i32, align 4
  %11 = alloca i32, align 4
  %12 = alloca ptr, align 8
  %13 = alloca i32, align 4
  %14 = alloca { i64, i32 }, align 8
  store ptr %0, ptr %8, align 8
  store ptr %1, ptr %9, align 8
  store i32 %2, ptr %10, align 4
  store i32 %3, ptr %11, align 4
  store ptr %4, ptr %12, align 8
  store i32 %5, ptr %13, align 4
  %15 = load ptr, ptr %8, align 8
  %16 = load ptr, ptr %9, align 8
  %17 = load i32, ptr %10, align 4
  %18 = load i32, ptr %11, align 4
  %19 = load ptr, ptr %12, align 8
  %20 = call noundef zeroext i1 @_ZNK4llvm10X86TTIImpl15isLegalAltInstrEPNS_10VectorTypeEjjRKNS_14SmallBitVectorE(ptr noundef nonnull align 8 dereferenceable(72) %15, ptr noundef %16, i32 noundef %17, i32 noundef %18, ptr noundef nonnull align 8 dereferenceable(8) %19)
  br i1 %20, label %21, label %22

21:                                               ; preds = %6
  call void @_ZN4llvm15InstructionCostC2El(ptr noundef nonnull align 8 dereferenceable(12) %7, i64 noundef 1)
  br label %24

22:                                               ; preds = %6
  %23 = call { i64, i32 } @_ZN4llvm15InstructionCost10getInvalidEl(i64 noundef 0)
  store { i64, i32 } %23, ptr %14, align 8
  call void @llvm.memcpy.p0.p0.i64(ptr align 8 %7, ptr align 8 %14, i64 12, i1 false)
  br label %24

24:                                               ; preds = %22, %21
  %25 = load { i64, i32 }, ptr %7, align 8
  ret { i64, i32 } %25
}