; Function Attrs: mustprogress nofree norecurse nosync nounwind willreturn memory(read, inaccessiblemem: none) uwtable
define dso_local { i64, i32 } @_ZNK4llvm10X86TTIImpl15getAltInstrCostEPNS_10VectorTypeEjjRKNS_14SmallBitVectorENS_19TargetTransformInfo14TargetCostKindE(ptr noundef nonnull readonly align 8 captures(none) dereferenceable(72) %0, ptr noundef readonly captures(none) %1, i32 noundef %2, i32 noundef %3, ptr noundef nonnull readonly align 8 captures(none) dereferenceable(8) %4, i32 noundef %5) local_unnamed_addr #0 align 2 {
  %7 = tail call noundef zeroext i1 @_ZNK4llvm10X86TTIImpl15isLegalAltInstrEPNS_10VectorTypeEjjRKNS_14SmallBitVectorE(ptr noundef nonnull align 8 dereferenceable(72) %0, ptr noundef %1, i32 noundef %2, i32 noundef %3, ptr noundef nonnull align 8 dereferenceable(8) %4)
  %not. = xor i1 %7, true
  %spec.select = zext i1 %not. to i32
  %spec.select4 = zext i1 %7 to i64
  %.fca.0.insert = insertvalue { i64, i32 } poison, i64 %spec.select4, 0
  %.fca.1.insert = insertvalue { i64, i32 } %.fca.0.insert, i32 %spec.select, 1
  ret { i64, i32 } %.fca.1.insert
}